; Function Attrs: mustprogress uwtable
define void @_ZN8proxygen18HTTP2PriorityQueue4Node17dropPriorityNodesEv(ptr noundef nonnull align 8 dereferenceable(200) %this) local_unnamed_addr #4 align 2 {
entry:
  %children_ = getelementptr inbounds i8, ptr %this, i64 136
  %0 = load ptr, ptr %children_, align 8
  %cmp.i.not1 = icmp eq ptr %0, %children_
  br i1 %cmp.i.not1, label %for.end, label %for.body

for.body:                                         ; preds = %entry, %for.body
  %it.sroa.0.02 = phi ptr [ %1, %for.body ], [ %0, %entry ]
  %1 = load ptr, ptr %it.sroa.0.02, align 8
  %_M_storage.i.i = getelementptr inbounds i8, ptr %it.sroa.0.02, i64 16
  %2 = load ptr, ptr %_M_storage.i.i, align 8
  tail call void @_ZN8proxygen18HTTP2PriorityQueue4Node17dropPriorityNodesEv(ptr noundef nonnull align 8 dereferenceable(200) %2)
  %cmp.i.not = icmp eq ptr %1, %children_
  br i1 %cmp.i.not, label %for.end, label %for.body, !llvm.loop !23

for.end:                                          ; preds = %for.body, %entry
  %txn_ = getelementptr inbounds i8, ptr %this, i64 104
  %3 = load ptr, ptr %txn_, align 8
  %tobool.not = icmp eq ptr %3, null
  br i1 %tobool.not, label %land.lhs.true, label %if.end

land.lhs.true:                                    ; preds = %for.end
  %isPermanent_ = getelementptr inbounds i8, ptr %this, i64 112
  %4 = load i8, ptr %isPermanent_, align 8
  %5 = and i8 %4, 1
  %tobool11.not = icmp eq i8 %5, 0
  br i1 %tobool11.not, label %if.then, label %if.end

if.then:                                          ; preds = %land.lhs.true
  tail call void @_ZN8proxygen18HTTP2PriorityQueue4Node14removeFromTreeEv(ptr noundef nonnull align 8 dereferenceable(200) %this)
  br label %if.end

if.end:                                           ; preds = %if.then, %land.lhs.true, %for.end
  ret void
}